target datalayout = "e-m:e-p270:32:32-p271:32:32-p272:64:64-i64:64-i128:128-f80:128-n8:16:32:64-S128"
target triple = "x86_64-pc-linux-gnu"

%struct._typeobject = type { %struct.PyVarObject, ptr, i64, i64, ptr, i64, ptr, ptr, ptr, ptr, ptr, ptr, ptr, ptr, ptr, ptr, ptr, ptr, ptr, i64, ptr, ptr, ptr, ptr, i64, ptr, ptr, ptr, ptr, ptr, ptr, ptr, ptr, ptr, i64, ptr, ptr, ptr, ptr, ptr, ptr, ptr, ptr, ptr, ptr, ptr, i32, ptr, ptr, i8, i16 }
%struct.PyVarObject = type { %struct._object, i64 }
%struct._object = type { %union.anon, ptr }
%union.anon = type { i64 }

@.str.3 = private unnamed_addr constant [32 x i8] c"../cpython/Objects/dictobject.c\00", align 1

; Function Attrs: inlinehint nounwind uwtable
define internal i32 @PyType_HasFeature(ptr noundef %0, i64 noundef %1) #2 {
  %3 = alloca ptr, align 8
  %4 = alloca i64, align 8
  %5 = alloca i64, align 8
  store ptr %0, ptr %3, align 8, !tbaa !56
  store i64 %1, ptr %4, align 8, !tbaa !39
  call void @llvm.lifetime.start.p0(i64 8, ptr %5) #10
  %6 = load ptr, ptr %3, align 8, !tbaa !56
  %7 = getelementptr inbounds nuw %struct._typeobject, ptr %6, i32 0, i32 19
  %8 = load i64, ptr %7, align 8, !tbaa !57
  store i64 %8, ptr %5, align 8, !tbaa !39
  %9 = load i64, ptr %5, align 8, !tbaa !39
  %10 = load i64, ptr %4, align 8, !tbaa !39
  %11 = and i64 %9, %10
  %12 = icmp ne i64 %11, 0
  %13 = zext i1 %12 to i32
  call void @llvm.lifetime.end.p0(i64 8, ptr %5) #10
  ret i32 %13
}

; Function Attrs: inlinehint nounwind uwtable
define internal ptr @_Py_TYPE(ptr noundef %0) #2 {
  %2 = alloca ptr, align 8
  store ptr %0, ptr %2, align 8, !tbaa !27
  %3 = load ptr, ptr %2, align 8, !tbaa !27
  %4 = getelementptr inbounds nuw %struct._object, ptr %3, i32 0, i32 1
  %5 = load ptr, ptr %4, align 8, !tbaa !65
  ret ptr %5
}

; Function Attrs: nounwind uwtable
define dso_local ptr @_PyDict_GetItem_KnownHash(ptr noundef %0, ptr noundef %1, i64 noundef %2) #0 {
  %4 = alloca ptr, align 8
  %5 = alloca ptr, align 8
  %6 = alloca ptr, align 8
  %7 = alloca i64, align 8
  %8 = alloca i64, align 8
  %9 = alloca ptr, align 8
  %10 = alloca ptr, align 8
  %11 = alloca i32, align 4
  store ptr %0, ptr %5, align 8, !tbaa !27
  store ptr %1, ptr %6, align 8, !tbaa !27
  store i64 %2, ptr %7, align 8, !tbaa !39
  call void @llvm.lifetime.start.p0(i64 8, ptr %8) #10
  call void @llvm.lifetime.start.p0(i64 8, ptr %9) #10
  %12 = load ptr, ptr %5, align 8, !tbaa !27
  store ptr %12, ptr %9, align 8, !tbaa !29
  call void @llvm.lifetime.start.p0(i64 8, ptr %10) #10
  %13 = load ptr, ptr %5, align 8, !tbaa !27
  %14 = call ptr @_Py_TYPE(ptr noundef %13)
  %15 = call i32 @PyType_HasFeature(ptr noundef %14, i64 noundef 536870912)
  %16 = icmp ne i32 %15, 0
  br i1 %16, label %18, label %17

17:                                               ; preds = %3
  call void @_PyErr_BadInternalCall(ptr noundef @.str.3, i32 noundef 2296)
  store ptr null, ptr %4, align 8
  store i32 1, ptr %11, align 4
  br label %24

18:                                               ; preds = %3
  %19 = load ptr, ptr %9, align 8, !tbaa !29
  %20 = load ptr, ptr %6, align 8, !tbaa !27
  %21 = load i64, ptr %7, align 8, !tbaa !39
  %22 = call i64 @_Py_dict_lookup(ptr noundef %19, ptr noundef %20, i64 noundef %21, ptr noundef %10)
  store i64 %22, ptr %8, align 8, !tbaa !39
  %23 = load ptr, ptr %10, align 8, !tbaa !27
  store ptr %23, ptr %4, align 8
  store i32 1, ptr %11, align 4
  br label %24

24:                                               ; preds = %18, %17
  call void @llvm.lifetime.end.p0(i64 8, ptr %10) #10
  call void @llvm.lifetime.end.p0(i64 8, ptr %9) #10
  call void @llvm.lifetime.end.p0(i64 8, ptr %8) #10
  %25 = load ptr, ptr %4, align 8
  ret ptr %25
}