; Function Attrs: nounwind uwtable
define dso_local ptr @_PyDict_GetItem_KnownHash(ptr noundef readonly captures(none) %0, ptr noundef %1, i64 noundef %2) local_unnamed_addr #0 {
  %4 = alloca ptr, align 8
  call void @llvm.lifetime.start.p0(i64 8, ptr nonnull %4) #23
  %5 = getelementptr i8, ptr %0, i64 8
  %.val = load ptr, ptr %5, align 8, !tbaa !25
  %6 = getelementptr i8, ptr %.val, i64 168
  %.val5 = load i64, ptr %6, align 8, !tbaa !28
  %7 = and i64 %.val5, 536870912
  %.not = icmp eq i64 %7, 0
  br i1 %.not, label %8, label %9

8:                                                ; preds = %3
  tail call void @_PyErr_BadInternalCall(ptr noundef nonnull @.str.3, i32 noundef 2296) #23
  br label %12

9:                                                ; preds = %3
  %10 = call i64 @_Py_dict_lookup(ptr noundef nonnull %0, ptr noundef %1, i64 noundef %2, ptr noundef nonnull %4)
  %11 = load ptr, ptr %4, align 8, !tbaa !64
  br label %12

12:                                               ; preds = %9, %8
  %.0 = phi ptr [ %11, %9 ], [ null, %8 ]
  call void @llvm.lifetime.end.p0(i64 8, ptr nonnull %4) #23
  ret ptr %.0
}